target datalayout = "e-m:e-p270:32:32-p271:32:32-p272:64:64-i64:64-i128:128-f80:128-n8:16:32:64-S128"
target triple = "x86_64-pc-linux-gnu"

%"struct.std::once_flag" = type { i32 }
%"class.duckdb_re2::RE2::Options" = type <{ i64, i32, i8, i8, i8, i8, i8, i8, i8, i8, i8, i8, i8, i8 }>
%"class.duckdb_re2::StringPiece" = type { ptr, i64 }
%"class.duckdb_re2::RE2" = type <{ ptr, %"class.duckdb_re2::RE2::Options", ptr, ptr, ptr, ptr, i32, i32, %"class.std::__cxx11::basic_string", ptr, ptr, ptr, ptr, %"struct.std::once_flag", %"struct.std::once_flag", %"struct.std::once_flag", [4 x i8] }>
%"class.std::__cxx11::basic_string" = type { %"struct.std::__cxx11::basic_string<char>::_Alloc_hider", i64, %union.anon }
%"struct.std::__cxx11::basic_string<char>::_Alloc_hider" = type { ptr }
%union.anon = type { i64, [8 x i8] }

; Function Attrs: mustprogress nounwind uwtable
define linkonce_odr void @_ZNSt11char_traitsIcE6assignERcRKc(ptr noundef nonnull align 1 dereferenceable(1) %0, ptr noundef nonnull align 1 dereferenceable(1) %1) #0 comdat align 2 {
  %3 = alloca ptr, align 8
  %4 = alloca ptr, align 8
  store ptr %0, ptr %3, align 8, !tbaa !31
  store ptr %1, ptr %4, align 8, !tbaa !31
  %5 = load ptr, ptr %4, align 8, !tbaa !31
  %6 = load i8, ptr %5, align 1, !tbaa !149
  %7 = load ptr, ptr %3, align 8, !tbaa !31
  store i8 %6, ptr %7, align 1, !tbaa !149
  ret void
}

; Function Attrs: mustprogress nounwind uwtable
define available_externally noundef ptr @_ZNKSt7__cxx1112basic_stringIcSt11char_traitsIcESaIcEE7_M_dataEv(ptr noundef nonnull align 8 dereferenceable(32) %0) #0 align 2 {
  %2 = alloca ptr, align 8
  store ptr %0, ptr %2, align 8, !tbaa !33
  %3 = load ptr, ptr %2, align 8
  %4 = getelementptr inbounds nuw %"class.std::__cxx11::basic_string", ptr %3, i32 0, i32 0
  %5 = getelementptr inbounds nuw %"struct.std::__cxx11::basic_string<char>::_Alloc_hider", ptr %4, i32 0, i32 0
  %6 = load ptr, ptr %5, align 8, !tbaa !233
  ret ptr %6
}

; Function Attrs: mustprogress nounwind uwtable
define available_externally void @_ZNSt7__cxx1112basic_stringIcSt11char_traitsIcESaIcEE9_M_lengthEm(ptr noundef nonnull align 8 dereferenceable(32) %0, i64 noundef %1) #0 align 2 {
  %3 = alloca ptr, align 8
  %4 = alloca i64, align 8
  store ptr %0, ptr %3, align 8, !tbaa !33
  store i64 %1, ptr %4, align 8, !tbaa !83
  %5 = load ptr, ptr %3, align 8
  %6 = load i64, ptr %4, align 8, !tbaa !83
  %7 = getelementptr inbounds nuw %"class.std::__cxx11::basic_string", ptr %5, i32 0, i32 1
  store i64 %6, ptr %7, align 8, !tbaa !157
  ret void
}

; Function Attrs: mustprogress nounwind uwtable
define available_externally void @_ZNSt7__cxx1112basic_stringIcSt11char_traitsIcESaIcEE13_M_set_lengthEm(ptr noundef nonnull align 8 dereferenceable(32) %0, i64 noundef %1) #0 align 2 {
  %3 = alloca ptr, align 8
  %4 = alloca i64, align 8
  %5 = alloca i8, align 1
  store ptr %0, ptr %3, align 8, !tbaa !33
  store i64 %1, ptr %4, align 8, !tbaa !83
  %6 = load ptr, ptr %3, align 8
  %7 = load i64, ptr %4, align 8, !tbaa !83
  call void @_ZNSt7__cxx1112basic_stringIcSt11char_traitsIcESaIcEE9_M_lengthEm(ptr noundef nonnull align 8 dereferenceable(32) %6, i64 noundef %7)
  %8 = call noundef ptr @_ZNKSt7__cxx1112basic_stringIcSt11char_traitsIcESaIcEE7_M_dataEv(ptr noundef nonnull align 8 dereferenceable(32) %6)
  %9 = load i64, ptr %4, align 8, !tbaa !83
  %10 = getelementptr inbounds nuw i8, ptr %8, i64 %9
  call void @llvm.lifetime.start.p0(i64 1, ptr %5) #20
  store i8 0, ptr %5, align 1, !tbaa !149
  call void @_ZNSt11char_traitsIcE6assignERcRKc(ptr noundef nonnull align 1 dereferenceable(1) %10, ptr noundef nonnull align 1 dereferenceable(1) %5) #20
  call void @llvm.lifetime.end.p0(i64 1, ptr %5) #20
  ret void
}

; Function Attrs: mustprogress nounwind uwtable
define linkonce_odr hidden noundef ptr @_ZNK10duckdb_re211StringPiece4dataEv(ptr noundef nonnull align 8 dereferenceable(16) %0) #0 comdat align 2 {
  %2 = alloca ptr, align 8
  store ptr %0, ptr %2, align 8, !tbaa !39
  %3 = load ptr, ptr %2, align 8
  %4 = getelementptr inbounds nuw %"class.duckdb_re2::StringPiece", ptr %3, i32 0, i32 0
  %5 = load ptr, ptr %4, align 8, !tbaa !63
  ret ptr %5
}

; Function Attrs: mustprogress nounwind uwtable
define available_externally void @_ZNSt7__cxx1112basic_stringIcSt11char_traitsIcESaIcEE5clearEv(ptr noundef nonnull align 8 dereferenceable(32) %0) #0 align 2 {
  %2 = alloca ptr, align 8
  store ptr %0, ptr %2, align 8, !tbaa !33
  %3 = load ptr, ptr %2, align 8
  call void @_ZNSt7__cxx1112basic_stringIcSt11char_traitsIcESaIcEE13_M_set_lengthEm(ptr noundef nonnull align 8 dereferenceable(32) %3, i64 noundef 0)
  ret void
}

; Function Attrs: mustprogress nounwind uwtable
define linkonce_odr hidden noundef i64 @_ZNK10duckdb_re211StringPiece4sizeEv(ptr noundef nonnull align 8 dereferenceable(16) %0) #0 comdat align 2 {
  %2 = alloca ptr, align 8
  store ptr %0, ptr %2, align 8, !tbaa !39
  %3 = load ptr, ptr %2, align 8
  %4 = getelementptr inbounds nuw %"class.duckdb_re2::StringPiece", ptr %3, i32 0, i32 1
  %5 = load i64, ptr %4, align 8, !tbaa !65
  ret i64 %5
}

; Function Attrs: mustprogress nounwind uwtable
define linkonce_odr hidden noundef i32 @_ZNK10duckdb_re23RE223NumberOfCapturingGroupsEv(ptr noundef nonnull align 8 dereferenceable(148) %0) #0 comdat align 2 {
  %2 = alloca ptr, align 8
  store ptr %0, ptr %2, align 8, !tbaa !29
  %3 = load ptr, ptr %2, align 8
  %4 = getelementptr inbounds nuw %"class.duckdb_re2::RE2", ptr %3, i32 0, i32 6
  %5 = load i32, ptr %4, align 8, !tbaa !54
  ret i32 %5
}

; Function Attrs: mustprogress uwtable
define hidden noundef i32 @_ZN10duckdb_re23RE211MaxSubmatchERKNS_11StringPieceE(ptr noundef nonnull align 8 dereferenceable(16) %0) #1 align 2 {
  %2 = alloca ptr, align 8
  %3 = alloca i32, align 4
  %4 = alloca ptr, align 8
  %5 = alloca ptr, align 8
  %6 = alloca i32, align 4
  %7 = alloca i32, align 4
  store ptr %0, ptr %2, align 8, !tbaa !39
  call void @llvm.lifetime.start.p0(i64 4, ptr %3) #20
  store i32 0, ptr %3, align 4, !tbaa !3
  call void @llvm.lifetime.start.p0(i64 8, ptr %4) #20
  %8 = load ptr, ptr %2, align 8, !tbaa !39
  %9 = call noundef ptr @_ZNK10duckdb_re211StringPiece4dataEv(ptr noundef nonnull align 8 dereferenceable(16) %8)
  store ptr %9, ptr %4, align 8, !tbaa !31
  call void @llvm.lifetime.start.p0(i64 8, ptr %5) #20
  %10 = load ptr, ptr %4, align 8, !tbaa !31
  %11 = load ptr, ptr %2, align 8, !tbaa !39
  %12 = call noundef i64 @_ZNK10duckdb_re211StringPiece4sizeEv(ptr noundef nonnull align 8 dereferenceable(16) %11)
  %13 = getelementptr inbounds nuw i8, ptr %10, i64 %12
  store ptr %13, ptr %5, align 8, !tbaa !31
  br label %14

14:                                               ; preds = %51, %1
  %15 = load ptr, ptr %4, align 8, !tbaa !31
  %16 = load ptr, ptr %5, align 8, !tbaa !31
  %17 = icmp ult ptr %15, %16
  br i1 %17, label %19, label %18

18:                                               ; preds = %14
  call void @llvm.lifetime.end.p0(i64 8, ptr %5) #20
  call void @llvm.lifetime.end.p0(i64 8, ptr %4) #20
  br label %54

19:                                               ; preds = %14
  %20 = load ptr, ptr %4, align 8, !tbaa !31
  %21 = load i8, ptr %20, align 1, !tbaa !149
  %22 = sext i8 %21 to i32
  %23 = icmp eq i32 %22, 92
  br i1 %23, label %24, label %50

24:                                               ; preds = %19
  %25 = load ptr, ptr %4, align 8, !tbaa !31
  %26 = getelementptr inbounds nuw i8, ptr %25, i32 1
  store ptr %26, ptr %4, align 8, !tbaa !31
  call void @llvm.lifetime.start.p0(i64 4, ptr %6) #20
  %27 = load ptr, ptr %4, align 8, !tbaa !31
  %28 = load ptr, ptr %5, align 8, !tbaa !31
  %29 = icmp ult ptr %27, %28
  br i1 %29, label %30, label %34

30:                                               ; preds = %24
  %31 = load ptr, ptr %4, align 8, !tbaa !31
  %32 = load i8, ptr %31, align 1, !tbaa !149
  %33 = sext i8 %32 to i32
  br label %35

34:                                               ; preds = %24
  br label %35

35:                                               ; preds = %34, %30
  %36 = phi i32 [ %33, %30 ], [ -1, %34 ]
  store i32 %36, ptr %6, align 4, !tbaa !3
  %37 = load i32, ptr %6, align 4, !tbaa !3
  %38 = call i32 @isdigit(i32 noundef %37) #24
  %39 = icmp ne i32 %38, 0
  br i1 %39, label %40, label %49

40:                                               ; preds = %35
  call void @llvm.lifetime.start.p0(i64 4, ptr %7) #20
  %41 = load i32, ptr %6, align 4, !tbaa !3
  %42 = sub nsw i32 %41, 48
  store i32 %42, ptr %7, align 4, !tbaa !3
  %43 = load i32, ptr %7, align 4, !tbaa !3
  %44 = load i32, ptr %3, align 4, !tbaa !3
  %45 = icmp sgt i32 %43, %44
  br i1 %45, label %46, label %48

46:                                               ; preds = %40
  %47 = load i32, ptr %7, align 4, !tbaa !3
  store i32 %47, ptr %3, align 4, !tbaa !3
  br label %48

48:                                               ; preds = %46, %40
  call void @llvm.lifetime.end.p0(i64 4, ptr %7) #20
  br label %49

49:                                               ; preds = %48, %35
  call void @llvm.lifetime.end.p0(i64 4, ptr %6) #20
  br label %50

50:                                               ; preds = %49, %19
  br label %51

51:                                               ; preds = %50
  %52 = load ptr, ptr %4, align 8, !tbaa !31
  %53 = getelementptr inbounds nuw i8, ptr %52, i32 1
  store ptr %53, ptr %4, align 8, !tbaa !31
  br label %14, !llvm.loop !150

54:                                               ; preds = %18
  %55 = load i32, ptr %3, align 4, !tbaa !3
  call void @llvm.lifetime.end.p0(i64 4, ptr %3) #20
  ret i32 %55
}

; Function Attrs: mustprogress nounwind uwtable
define linkonce_odr hidden void @_ZN10duckdb_re211StringPieceC2Ev(ptr noundef nonnull align 8 dereferenceable(16) %0) unnamed_addr #0 comdat align 2 {
  %2 = alloca ptr, align 8
  store ptr %0, ptr %2, align 8, !tbaa !39
  %3 = load ptr, ptr %2, align 8
  %4 = getelementptr inbounds nuw %"class.duckdb_re2::StringPiece", ptr %3, i32 0, i32 0
  store ptr null, ptr %4, align 8, !tbaa !63
  %5 = getelementptr inbounds nuw %"class.duckdb_re2::StringPiece", ptr %3, i32 0, i32 1
  store i64 0, ptr %5, align 8, !tbaa !65
  ret void
}

; Function Attrs: mustprogress uwtable
define hidden noundef zeroext i1 @_ZN10duckdb_re23RE27ExtractERKNS_11StringPieceERKS0_S3_PNSt7__cxx1112basic_stringIcSt11char_traitsIcESaIcEEE(ptr noundef nonnull align 8 dereferenceable(16) %0, ptr noundef nonnull align 8 dereferenceable(148) %1, ptr noundef nonnull align 8 dereferenceable(16) %2, ptr noundef %3) #1 align 2 {
  %5 = alloca i1, align 1
  %6 = alloca ptr, align 8
  %7 = alloca ptr, align 8
  %8 = alloca ptr, align 8
  %9 = alloca ptr, align 8
  %10 = alloca [17 x %"class.duckdb_re2::StringPiece"], align 16
  %11 = alloca i32, align 4
  %12 = alloca i32, align 4
  store ptr %0, ptr %6, align 8, !tbaa !39
  store ptr %1, ptr %7, align 8, !tbaa !29
  store ptr %2, ptr %8, align 8, !tbaa !39
  store ptr %3, ptr %9, align 8, !tbaa !33
  call void @llvm.lifetime.start.p0(i64 272, ptr %10) #20
  %13 = getelementptr inbounds [17 x %"class.duckdb_re2::StringPiece"], ptr %10, i32 0, i32 0
  %14 = getelementptr inbounds %"class.duckdb_re2::StringPiece", ptr %13, i64 17
  br label %15

15:                                               ; preds = %15, %4
  %16 = phi ptr [ %13, %4 ], [ %17, %15 ]
  call void @_ZN10duckdb_re211StringPieceC2Ev(ptr noundef nonnull align 8 dereferenceable(16) %16)
  %17 = getelementptr inbounds %"class.duckdb_re2::StringPiece", ptr %16, i64 1
  %18 = icmp eq ptr %17, %14
  br i1 %18, label %19, label %15

19:                                               ; preds = %15
  call void @llvm.lifetime.start.p0(i64 4, ptr %11) #20
  %20 = load ptr, ptr %8, align 8, !tbaa !39
  %21 = call noundef i32 @_ZN10duckdb_re23RE211MaxSubmatchERKNS_11StringPieceE(ptr noundef nonnull align 8 dereferenceable(16) %20)
  %22 = add nsw i32 1, %21
  store i32 %22, ptr %11, align 4, !tbaa !3
  %23 = load i32, ptr %11, align 4, !tbaa !3
  %24 = load ptr, ptr %7, align 8, !tbaa !29
  %25 = call noundef i32 @_ZNK10duckdb_re23RE223NumberOfCapturingGroupsEv(ptr noundef nonnull align 8 dereferenceable(148) %24)
  %26 = add nsw i32 1, %25
  %27 = icmp sgt i32 %23, %26
  br i1 %27, label %28, label %29

28:                                               ; preds = %19
  store i1 false, ptr %5, align 1
  store i32 1, ptr %12, align 4
  br label %50

29:                                               ; preds = %19
  %30 = load i32, ptr %11, align 4, !tbaa !3
  %31 = icmp sgt i32 %30, 17
  br i1 %31, label %32, label %33

32:                                               ; preds = %29
  store i1 false, ptr %5, align 1
  store i32 1, ptr %12, align 4
  br label %50

33:                                               ; preds = %29
  %34 = load ptr, ptr %7, align 8, !tbaa !29
  %35 = load ptr, ptr %6, align 8, !tbaa !39
  %36 = load ptr, ptr %6, align 8, !tbaa !39
  %37 = call noundef i64 @_ZNK10duckdb_re211StringPiece4sizeEv(ptr noundef nonnull align 8 dereferenceable(16) %36)
  %38 = getelementptr inbounds [17 x %"class.duckdb_re2::StringPiece"], ptr %10, i64 0, i64 0
  %39 = load i32, ptr %11, align 4, !tbaa !3
  %40 = call noundef zeroext i1 @_ZNK10duckdb_re23RE25MatchERKNS_11StringPieceEmmNS0_6AnchorEPS1_i(ptr noundef nonnull align 8 dereferenceable(148) %34, ptr noundef nonnull align 8 dereferenceable(16) %35, i64 noundef 0, i64 noundef %37, i32 noundef 0, ptr noundef %38, i32 noundef %39)
  br i1 %40, label %42, label %41

41:                                               ; preds = %33
  store i1 false, ptr %5, align 1
  store i32 1, ptr %12, align 4
  br label %50

42:                                               ; preds = %33
  %43 = load ptr, ptr %9, align 8, !tbaa !33
  call void @_ZNSt7__cxx1112basic_stringIcSt11char_traitsIcESaIcEE5clearEv(ptr noundef nonnull align 8 dereferenceable(32) %43) #20
  %44 = load ptr, ptr %7, align 8, !tbaa !29
  %45 = load ptr, ptr %9, align 8, !tbaa !33
  %46 = load ptr, ptr %8, align 8, !tbaa !39
  %47 = getelementptr inbounds [17 x %"class.duckdb_re2::StringPiece"], ptr %10, i64 0, i64 0
  %48 = load i32, ptr %11, align 4, !tbaa !3
  %49 = call noundef zeroext i1 @_ZNK10duckdb_re23RE27RewriteEPNSt7__cxx1112basic_stringIcSt11char_traitsIcESaIcEEERKNS_11StringPieceEPS9_i(ptr noundef nonnull align 8 dereferenceable(148) %44, ptr noundef %45, ptr noundef nonnull align 8 dereferenceable(16) %46, ptr noundef %47, i32 noundef %48)
  store i1 %49, ptr %5, align 1
  store i32 1, ptr %12, align 4
  br label %50

50:                                               ; preds = %42, %41, %32, %28
  call void @llvm.lifetime.end.p0(i64 4, ptr %11) #20
  call void @llvm.lifetime.end.p0(i64 272, ptr %10) #20
  %51 = load i1, ptr %5, align 1
  ret i1 %51
}