; Function Attrs: mustprogress uwtable
define hidden noundef zeroext i1 @_ZN10duckdb_re23RE27ExtractERKNS_11StringPieceERKS0_S3_PNSt7__cxx1112basic_stringIcSt11char_traitsIcESaIcEEE(ptr noundef nonnull align 8 dereferenceable(16) %0, ptr noundef nonnull align 8 dereferenceable(148) %1, ptr noundef nonnull readonly align 8 captures(none) dereferenceable(16) %2, ptr noundef %3) local_unnamed_addr #2 align 2 {
  %5 = alloca [17 x %"class.duckdb_re2::StringPiece"], align 16
  call void @llvm.lifetime.start.p0(i64 272, ptr nonnull %5) #31
  call void @llvm.memset.p0.i64(ptr noundef nonnull align 16 dereferenceable(272) %5, i8 0, i64 272, i1 false)
  %6 = load ptr, ptr %2, align 8, !tbaa !29
  %7 = getelementptr inbounds nuw i8, ptr %2, i64 8
  %8 = load i64, ptr %7, align 8, !tbaa !31
  %9 = getelementptr inbounds nuw i8, ptr %6, i64 %8
  %.not.i = icmp eq i64 %8, 0
  br i1 %.not.i, label %_ZN10duckdb_re23RE211MaxSubmatchERKNS_11StringPieceE.exit, label %.lr.ph.i

.lr.ph.i:                                         ; preds = %4, %.thread.i
  %.028.i = phi i32 [ %.3.i, %.thread.i ], [ 0, %4 ]
  %.01627.i = phi ptr [ %19, %.thread.i ], [ %6, %4 ]
  %10 = load i8, ptr %.01627.i, align 1, !tbaa !26
  %11 = icmp eq i8 %10, 92
  br i1 %11, label %12, label %.thread.i

12:                                               ; preds = %.lr.ph.i
  %13 = getelementptr inbounds nuw i8, ptr %.01627.i, i64 1
  %14 = icmp ult ptr %13, %9
  br i1 %14, label %15, label %.thread.i

15:                                               ; preds = %12
  %16 = load i8, ptr %13, align 1, !tbaa !26
  %.fr.i = freeze i8 %16
  %17 = sext i8 %.fr.i to i32
  %18 = add nsw i32 %17, -48
  %isdigit.i = icmp ult i32 %18, 10
  %spec.select.i = tail call i32 @llvm.smax.i32(i32 %18, i32 %.028.i)
  %spec.select25.i = select i1 %isdigit.i, i32 %spec.select.i, i32 %.028.i
  br label %.thread.i

.thread.i:                                        ; preds = %15, %12, %.lr.ph.i
  %.117.i = phi ptr [ %.01627.i, %.lr.ph.i ], [ %13, %12 ], [ %13, %15 ]
  %.3.i = phi i32 [ %.028.i, %.lr.ph.i ], [ %.028.i, %12 ], [ %spec.select25.i, %15 ]
  %19 = getelementptr inbounds nuw i8, ptr %.117.i, i64 1
  %20 = icmp ult ptr %19, %9
  br i1 %20, label %.lr.ph.i, label %_ZN10duckdb_re23RE211MaxSubmatchERKNS_11StringPieceE.exit, !llvm.loop !173

_ZN10duckdb_re23RE211MaxSubmatchERKNS_11StringPieceE.exit: ; preds = %.thread.i, %4
  %.0.lcssa.i = phi i32 [ 0, %4 ], [ %.3.i, %.thread.i ]
  %21 = add nuw nsw i32 %.0.lcssa.i, 1
  %22 = getelementptr inbounds nuw i8, ptr %1, i64 64
  %23 = load i32, ptr %22, align 8, !tbaa !51
  %24 = icmp sgt i32 %.0.lcssa.i, %23
  %25 = icmp samesign ugt i32 %.0.lcssa.i, 16
  %or.cond = select i1 %24, i1 true, i1 %25
  br i1 %or.cond, label %34, label %26

26:                                               ; preds = %_ZN10duckdb_re23RE211MaxSubmatchERKNS_11StringPieceE.exit
  %27 = getelementptr inbounds nuw i8, ptr %0, i64 8
  %28 = load i64, ptr %27, align 8, !tbaa !31
  %29 = call noundef zeroext i1 @_ZNK10duckdb_re23RE25MatchERKNS_11StringPieceEmmNS0_6AnchorEPS1_i(ptr noundef nonnull align 8 dereferenceable(148) %1, ptr noundef nonnull align 8 dereferenceable(16) %0, i64 noundef 0, i64 noundef %28, i32 noundef 0, ptr noundef nonnull %5, i32 noundef %21)
  br i1 %29, label %30, label %34

30:                                               ; preds = %26
  %31 = getelementptr inbounds nuw i8, ptr %3, i64 8
  store i64 0, ptr %31, align 8, !tbaa !24
  %32 = load ptr, ptr %3, align 8, !tbaa !32
  store i8 0, ptr %32, align 1, !tbaa !26
  %33 = call noundef zeroext i1 @_ZNK10duckdb_re23RE27RewriteEPNSt7__cxx1112basic_stringIcSt11char_traitsIcESaIcEEERKNS_11StringPieceEPS9_i(ptr noundef nonnull align 8 dereferenceable(148) %1, ptr noundef nonnull %3, ptr noundef nonnull align 8 dereferenceable(16) %2, ptr noundef nonnull %5, i32 noundef %21)
  br label %34

34:                                               ; preds = %26, %_ZN10duckdb_re23RE211MaxSubmatchERKNS_11StringPieceE.exit, %30
  %.0 = phi i1 [ %33, %30 ], [ false, %_ZN10duckdb_re23RE211MaxSubmatchERKNS_11StringPieceE.exit ], [ false, %26 ]
  call void @llvm.lifetime.end.p0(i64 272, ptr nonnull %5) #31
  ret i1 %.0
}